(dp0
S'010'
p1
(lp2
S'Caterpie'
p3
aI45
aI30
aI35
aI20
aI20
aI45
asS'135'
p4
(lp5
S'Jolteon'
p6
aI65
aI65
aI60
aI110
aI95
aI130
asS'011'
p7
(lp8
S'Metapod'
p9
aI50
aI20
aI55
aI25
aI25
aI30
asS'012'
p10
(lp11
S'Butterfree'
p12
aI60
aI45
aI50
aI90
aI80
aI70
asS'003'
p13
(lp14
S'Venusaur'
p15
aI80
aI82
aI83
aI100
aI100
aI80
asS'002'
p16
(lp17
S'Ivysaur'
p18
aI60
aI62
aI63
aI80
aI80
aI60
asS'001'
p19
(lp20
S'Bulbasaur'
p21
aI45
aI49
aI49
aI65
aI65
aI45
asS'013'
p22
(lp23
S'Weedle'
p24
aI40
aI35
aI30
aI20
aI20
aI50
asS'007'
p25
(lp26
S'Squirtle'
p27
aI44
aI48
aI65
aI50
aI64
aI43
asS'006'
p28
(lp29
S'Charizard'
p30
aI78
aI84
aI78
aI109
aI85
aI100
asS'005'
p31
(lp32
S'Charmeleon'
p33
aI58
aI64
aI58
aI80
aI65
aI80
asS'004'
p34
(lp35
S'Charmander'
p36
aI39
aI52
aI43
aI60
aI50
aI65
asS'014'
p37
(lp38
S'Kakuna'
p39
aI45
aI25
aI50
aI25
aI25
aI35
asS'009'
p40
(lp41
S'Blastoise'
p42
aI79
aI83
aI100
aI85
aI105
aI78
asS'008'
p43
(lp44
S'Wartortle'
p45
aI59
aI63
aI80
aI65
aI80
aI58
asS'015'
p46
(lp47
S'Beedrill'
p48
aI65
aI90
aI40
aI45
aI80
aI75
as.