(dp0
S'010'
p1
(lp2
S'Caterpie'
p3
aI45
aI30
aI35
aI20
aI20
aI45
asS'011'
p4
(lp5
S'Metapod'
p6
aI50
aI20
aI55
aI25
aI25
aI30
asS'012'
p7
(lp8
S'Butterfree'
p9
aI60
aI45
aI50
aI90
aI80
aI70
asS'003'
p10
(lp11
S'Venusaur'
p12
aI80
aI82
aI83
aI100
aI100
aI80
asS'002'
p13
(lp14
S'Ivysaur'
p15
aI60
aI62
aI63
aI80
aI80
aI60
asS'001'
p16
(lp17
S'Bulbasaur'
p18
aI45
aI49
aI49
aI65
aI65
aI45
asS'013'
p19
(lp20
S'Weedle'
p21
aI40
aI35
aI30
aI20
aI20
aI50
asS'007'
p22
(lp23
S'Squirtle'
p24
aI44
aI48
aI65
aI50
aI64
aI43
asS'006'
p25
(lp26
S'Charizard'
p27
aI78
aI84
aI78
aI109
aI85
aI100
asS'005'
p28
(lp29
S'Charmeleon'
p30
aI58
aI64
aI58
aI80
aI65
aI80
asS'004'
p31
(lp32
S'Charmander'
p33
aI39
aI52
aI43
aI60
aI50
aI65
asS'014'
p34
(lp35
S'Kakuna'
p36
aI45
aI25
aI50
aI25
aI25
aI35
asS'009'
p37
(lp38
S'Blastoise'
p39
aI79
aI83
aI100
aI85
aI105
aI78
asS'008'
p40
(lp41
S'Wartortle'
p42
aI59
aI63
aI80
aI65
aI80
aI58
asS'015'
p43
(lp44
S'Beedrill'
p45
aI65
aI90
aI40
aI45
aI80
aI75
as.